	.file	"shld5.c"
	.text
	.globl	shld5
	.type	shld5, @function
shld5:
.LFB6:
	.cfi_startproc
	endbr32
	pushl	%ebp
	.cfi_def_cfa_offset 8
	.cfi_offset 5, -8
	movl	%esp, %ebp
	.cfi_def_cfa_register 5
	subl	$16, %esp
	call	__x86.get_pc_thunk.ax
	addl	$_GLOBAL_OFFSET_TABLE_, %eax
	movl	12(%ebp), %edx
	movl	8(%ebp), %eax
#APP
# 8 "shld5.c" 1
	shldl	$5, %edx, %eax
# 0 "" 2
#NO_APP
	movl	%eax, -4(%ebp)
	movl	-4(%ebp), %eax
	leave
	.cfi_restore 5
	.cfi_def_cfa 4, 4
	ret
	.cfi_endproc
.LFE6:
	.size	shld5, .-shld5
	.section	.rodata
.LC0:
	.string	"Ans is 0x%x\nRef is 0x%x\n"
	.text
	.globl	main
	.type	main, @function
main:
.LFB7:
	.cfi_startproc
	endbr32
	leal	4(%esp), %ecx
	.cfi_def_cfa 1, 0
	andl	$-16, %esp
	pushl	-4(%ecx)
	pushl	%ebp
	movl	%esp, %ebp
	.cfi_escape 0x10,0x5,0x2,0x75,0
	pushl	%esi
	pushl	%ebx
	pushl	%ecx
	.cfi_escape 0xf,0x3,0x75,0x74,0x6
	.cfi_escape 0x10,0x6,0x2,0x75,0x7c
	.cfi_escape 0x10,0x3,0x2,0x75,0x78
	subl	$28, %esp
	call	__x86.get_pc_thunk.bx
	addl	$_GLOBAL_OFFSET_TABLE_, %ebx
	movl	%ecx, %esi
	cmpl	$3, (%esi)
	je	.L4
	movl	$1, %eax
	jmp	.L5
.L4:
	movl	4(%esi), %eax
	addl	$4, %eax
	movl	(%eax), %eax
	subl	$12, %esp
	pushl	%eax
	call	atoi@PLT
	addl	$16, %esp
	movl	%eax, -40(%ebp)
	movl	4(%esi), %eax
	addl	$8, %eax
	movl	(%eax), %eax
	subl	$12, %esp
	pushl	%eax
	call	atoi@PLT
	addl	$16, %esp
	movl	%eax, -36(%ebp)
	subl	$8, %esp
	pushl	-36(%ebp)
	pushl	-40(%ebp)
	call	shld5
	addl	$16, %esp
	movl	%eax, -32(%ebp)
	movl	-40(%ebp), %eax
	sall	$5, %eax
	movl	%eax, %edx
	movl	-36(%ebp), %eax
	shrl	$27, %eax
	orl	%edx, %eax
	movl	%eax, -28(%ebp)
	subl	$4, %esp
	pushl	-28(%ebp)
	pushl	-32(%ebp)
	leal	.LC0@GOTOFF(%ebx), %eax
	pushl	%eax
	call	printf@PLT
	addl	$16, %esp
	movl	$0, %eax
.L5:
	leal	-12(%ebp), %esp
	popl	%ecx
	.cfi_restore 1
	.cfi_def_cfa 1, 0
	popl	%ebx
	.cfi_restore 3
	popl	%esi
	.cfi_restore 6
	popl	%ebp
	.cfi_restore 5
	leal	-4(%ecx), %esp
	.cfi_def_cfa 4, 4
	ret
	.cfi_endproc
.LFE7:
	.size	main, .-main
	.section	.text.__x86.get_pc_thunk.ax,"axG",@progbits,__x86.get_pc_thunk.ax,comdat
	.globl	__x86.get_pc_thunk.ax
	.hidden	__x86.get_pc_thunk.ax
	.type	__x86.get_pc_thunk.ax, @function
__x86.get_pc_thunk.ax:
.LFB8:
	.cfi_startproc
	movl	(%esp), %eax
	ret
	.cfi_endproc
.LFE8:
	.section	.text.__x86.get_pc_thunk.bx,"axG",@progbits,__x86.get_pc_thunk.bx,comdat
	.globl	__x86.get_pc_thunk.bx
	.hidden	__x86.get_pc_thunk.bx
	.type	__x86.get_pc_thunk.bx, @function
__x86.get_pc_thunk.bx:
.LFB9:
	.cfi_startproc
	movl	(%esp), %ebx
	ret
	.cfi_endproc
.LFE9:
	.ident	"GCC: (Ubuntu 9.4.0-1ubuntu1~20.04.1) 9.4.0"
	.section	.note.GNU-stack,"",@progbits
	.section	.note.gnu.property,"a"
	.align 4
	.long	 1f - 0f
	.long	 4f - 1f
	.long	 5
0:
	.string	 "GNU"
1:
	.align 4
	.long	 0xc0000002
	.long	 3f - 2f
2:
	.long	 0x3
3:
	.align 4
4:
